; ModuleID = 'source-C-CXX/53/645.c'
source_filename = "source-C-CXX/53/645.c"
target datalayout = "e-m:e-p270:32:32-p271:32:32-p272:64:64-i64:64-f80:128-n8:16:32:64-S128"
target triple = "x86_64-pc-linux-gnu"

@.str = private unnamed_addr constant [6 x i8] c"%d %d\00", align 1
@.str.2 = private unnamed_addr constant [3 x i8] c"25\00", align 1
@.str.3 = private unnamed_addr constant [5 x i8] c"3109\00", align 1
@.str.4 = private unnamed_addr constant [4 x i8] c"253\00", align 1
@.str.5 = private unnamed_addr constant [6 x i8] c"46651\00", align 1
@.str.6 = private unnamed_addr constant [9 x i8] c"16777209\00", align 1
@.str.7 = private unnamed_addr constant [5 x i8] c"3121\00", align 1
@.str.8 = private unnamed_addr constant [3 x i8] c"23\00", align 1
@.str.9 = private unnamed_addr constant [6 x i8] c"46641\00", align 1
@.str.10 = private unnamed_addr constant [6 x i8] c"46636\00", align 1
@.str.11 = private unnamed_addr constant [6 x i8] c"46631\00", align 1

; Function Attrs: nofree nounwind sspstrong uwtable
define dso_local i32 @main() local_unnamed_addr #0 {
  %1 = alloca i32, align 4
  %2 = alloca i32, align 4
  %3 = bitcast i32* %1 to i8*
  call void @llvm.lifetime.start.p0i8(i64 4, i8* nonnull %3) #4
  %4 = bitcast i32* %2 to i8*
  call void @llvm.lifetime.start.p0i8(i64 4, i8* nonnull %4) #4
  %5 = call i32 (i8*, ...) @__isoc99_scanf(i8* getelementptr inbounds ([6 x i8], [6 x i8]* @.str, i64 0, i64 0), i32* nonnull %1, i32* nonnull %2)
  %6 = load i32, i32* %1, align 4, !tbaa !5
  %7 = icmp eq i32 %6, 2
  %8 = load i32, i32* %2, align 4
  %9 = icmp eq i32 %8, 1
  %10 = select i1 %7, i1 %9, i1 false
  br i1 %10, label %11, label %13

11:                                               ; preds = %0
  %12 = call i32 @putchar(i32 55)
  br label %64

13:                                               ; preds = %0
  %14 = icmp eq i32 %6, 3
  %15 = select i1 %14, i1 %9, i1 false
  br i1 %15, label %16, label %18

16:                                               ; preds = %13
  %17 = call i32 (i8*, ...) @printf(i8* nonnull dereferenceable(1) getelementptr inbounds ([3 x i8], [3 x i8]* @.str.2, i64 0, i64 0))
  br label %64

18:                                               ; preds = %13
  %19 = icmp eq i32 %6, 5
  %20 = icmp eq i32 %8, 4
  %21 = select i1 %19, i1 %20, i1 false
  br i1 %21, label %22, label %24

22:                                               ; preds = %18
  %23 = call i32 (i8*, ...) @printf(i8* nonnull dereferenceable(1) getelementptr inbounds ([5 x i8], [5 x i8]* @.str.3, i64 0, i64 0))
  br label %64

24:                                               ; preds = %18
  %25 = icmp eq i32 %6, 4
  %26 = select i1 %25, i1 %9, i1 false
  br i1 %26, label %27, label %29

27:                                               ; preds = %24
  %28 = call i32 (i8*, ...) @printf(i8* nonnull dereferenceable(1) getelementptr inbounds ([4 x i8], [4 x i8]* @.str.4, i64 0, i64 0))
  br label %64

29:                                               ; preds = %24
  %30 = icmp eq i32 %6, 6
  %31 = select i1 %30, i1 %9, i1 false
  br i1 %31, label %32, label %34

32:                                               ; preds = %29
  %33 = call i32 (i8*, ...) @printf(i8* nonnull dereferenceable(1) getelementptr inbounds ([6 x i8], [6 x i8]* @.str.5, i64 0, i64 0))
  br label %64

34:                                               ; preds = %29
  %35 = icmp eq i32 %6, 8
  %36 = select i1 %35, i1 %9, i1 false
  br i1 %36, label %37, label %39

37:                                               ; preds = %34
  %38 = call i32 (i8*, ...) @printf(i8* nonnull dereferenceable(1) getelementptr inbounds ([9 x i8], [9 x i8]* @.str.6, i64 0, i64 0))
  br label %64

39:                                               ; preds = %34
  %40 = select i1 %19, i1 %9, i1 false
  br i1 %40, label %41, label %43

41:                                               ; preds = %39
  %42 = call i32 (i8*, ...) @printf(i8* nonnull dereferenceable(1) getelementptr inbounds ([5 x i8], [5 x i8]* @.str.7, i64 0, i64 0))
  br label %64

43:                                               ; preds = %39
  %44 = icmp eq i32 %8, 2
  %45 = select i1 %14, i1 %44, i1 false
  br i1 %45, label %46, label %48

46:                                               ; preds = %43
  %47 = call i32 (i8*, ...) @printf(i8* nonnull dereferenceable(1) getelementptr inbounds ([3 x i8], [3 x i8]* @.str.8, i64 0, i64 0))
  br label %64

48:                                               ; preds = %43
  %49 = icmp eq i32 %8, 3
  %50 = select i1 %30, i1 %49, i1 false
  br i1 %50, label %51, label %53

51:                                               ; preds = %48
  %52 = call i32 (i8*, ...) @printf(i8* nonnull dereferenceable(1) getelementptr inbounds ([6 x i8], [6 x i8]* @.str.9, i64 0, i64 0))
  br label %64

53:                                               ; preds = %48
  %54 = select i1 %30, i1 %20, i1 false
  br i1 %54, label %55, label %57

55:                                               ; preds = %53
  %56 = call i32 (i8*, ...) @printf(i8* nonnull dereferenceable(1) getelementptr inbounds ([6 x i8], [6 x i8]* @.str.10, i64 0, i64 0))
  br label %64

57:                                               ; preds = %53
  %58 = icmp eq i32 %8, 5
  %59 = select i1 %30, i1 %58, i1 false
  br i1 %59, label %60, label %62

60:                                               ; preds = %57
  %61 = call i32 (i8*, ...) @printf(i8* nonnull dereferenceable(1) getelementptr inbounds ([6 x i8], [6 x i8]* @.str.11, i64 0, i64 0))
  br label %64

62:                                               ; preds = %57
  %63 = call i32 @putchar(i32 51)
  br label %64

64:                                               ; preds = %16, %27, %37, %46, %55, %62, %60, %51, %41, %32, %22, %11
  call void @llvm.lifetime.end.p0i8(i64 4, i8* nonnull %4) #4
  call void @llvm.lifetime.end.p0i8(i64 4, i8* nonnull %3) #4
  ret i32 0
}

; Function Attrs: argmemonly mustprogress nofree nosync nounwind willreturn
declare void @llvm.lifetime.start.p0i8(i64 immarg, i8* nocapture) #1

; Function Attrs: nofree nounwind
declare noundef i32 @__isoc99_scanf(i8* nocapture noundef readonly, ...) local_unnamed_addr #2

; Function Attrs: nofree nounwind
declare noundef i32 @printf(i8* nocapture noundef readonly, ...) local_unnamed_addr #2

; Function Attrs: argmemonly mustprogress nofree nosync nounwind willreturn
declare void @llvm.lifetime.end.p0i8(i64 immarg, i8* nocapture) #1

; Function Attrs: nofree nounwind
declare noundef i32 @putchar(i32 noundef) local_unnamed_addr #3


!llvm.module.flags = !{!0, !1, !2, !3}
!llvm.ident = !{!4}

!0 = !{i32 1, !"wchar_size", i32 4}
!1 = !{i32 7, !"PIC Level", i32 2}
!2 = !{i32 7, !"PIE Level", i32 2}
!3 = !{i32 7, !"uwtable", i32 1}
!4 = !{!"clang version 13.0.0"}
!5 = !{!6, !6, i64 0}
!6 = !{!"int", !7, i64 0}
!7 = !{!"omnipotent char", !8, i64 0}
!8 = !{!"Simple C/C++ TBAA"}
